; ModuleID = '47/4029.c'
source_filename = "47/4029.c"
target datalayout = "e-m:e-p270:32:32-p271:32:32-p272:64:64-i64:64-f80:128-n8:16:32:64-S128"
target triple = "x86_64-pc-linux-gnu"

@.str = private unnamed_addr constant [3 x i8] c"%d\00", align 1
@.str.1 = private unnamed_addr constant [4 x i8] c" %d\00", align 1

; Function Attrs: noinline nounwind uwtable
define dso_local i32 @main(i32 %0, i8** %1) #0 {
  %3 = alloca i32, align 4
  %4 = alloca i32, align 4
  %5 = alloca i8**, align 8
  %6 = alloca i32, align 4
  %7 = alloca i32, align 4
  %8 = alloca [100 x i32], align 16
  %9 = alloca i32, align 4
  store i32 0, i32* %3, align 4
  store i32 %0, i32* %4, align 4
  store i8** %1, i8*** %5, align 8
  %10 = call i32 (i8*, ...) @__isoc99_scanf(i8* getelementptr inbounds ([3 x i8], [3 x i8]* @.str, i64 0, i64 0), i32* %6)
  store i32 0, i32* %7, align 4
  br label %11

11:                                               ; preds = %20, %2
  %12 = load i32, i32* %7, align 4
  %13 = load i32, i32* %6, align 4
  %14 = icmp slt i32 %12, %13
  br i1 %14, label %15, label %23

15:                                               ; preds = %11
  %16 = load i32, i32* %7, align 4
  %17 = sext i32 %16 to i64
  %18 = getelementptr inbounds [100 x i32], [100 x i32]* %8, i64 0, i64 %17
  %19 = call i32 (i8*, ...) @__isoc99_scanf(i8* getelementptr inbounds ([3 x i8], [3 x i8]* @.str, i64 0, i64 0), i32* %18)
  br label %20

20:                                               ; preds = %15
  %21 = load i32, i32* %7, align 4
  %22 = add nsw i32 %21, 1
  store i32 %22, i32* %7, align 4
  br label %11

23:                                               ; preds = %11
  %24 = load i32, i32* %6, align 4
  %25 = sub nsw i32 %24, 1
  %26 = sext i32 %25 to i64
  %27 = getelementptr inbounds [100 x i32], [100 x i32]* %8, i64 0, i64 %26
  %28 = load i32, i32* %27, align 4
  %29 = call i32 (i8*, ...) @printf(i8* getelementptr inbounds ([3 x i8], [3 x i8]* @.str, i64 0, i64 0), i32 %28)
  %30 = load i32, i32* %6, align 4
  %31 = sub nsw i32 %30, 2
  store i32 %31, i32* %9, align 4
  br label %32

32:                                               ; preds = %41, %23
  %33 = load i32, i32* %9, align 4
  %34 = icmp sge i32 %33, 0
  br i1 %34, label %35, label %44

35:                                               ; preds = %32
  %36 = load i32, i32* %9, align 4
  %37 = sext i32 %36 to i64
  %38 = getelementptr inbounds [100 x i32], [100 x i32]* %8, i64 0, i64 %37
  %39 = load i32, i32* %38, align 4
  %40 = call i32 (i8*, ...) @printf(i8* getelementptr inbounds ([4 x i8], [4 x i8]* @.str.1, i64 0, i64 0), i32 %39)
  br label %41

41:                                               ; preds = %35
  %42 = load i32, i32* %9, align 4
  %43 = add nsw i32 %42, -1
  store i32 %43, i32* %9, align 4
  br label %32

44:                                               ; preds = %32
  ret i32 0
}

declare dso_local i32 @__isoc99_scanf(i8*, ...) #1

declare dso_local i32 @printf(i8*, ...) #1


!llvm.module.flags = !{!0}
!llvm.ident = !{!1}

!0 = !{i32 1, !"wchar_size", i32 4}
!1 = !{!"clang version 10.0.0-4ubuntu1 "}
